; Function Attrs: mustprogress nounwind uwtable
define dso_local void @_ZN4llvm17LazyValueInfoImpl32solveBlockValueOverflowIntrinsicEPNS_16WithOverflowInstEPNS_10BasicBlockE(ptr dead_on_unwind noalias nocapture writable writeonly sret(%"class.std::optional") align 8 %0, ptr noundef nonnull align 8 dereferenceable(240) %1, ptr noundef %2, ptr noundef %3) local_unnamed_addr #0 align 2 {
  %5 = alloca %"class.std::function", align 8
  %6 = getelementptr inbounds nuw i8, ptr %5, i64 16
  %7 = getelementptr inbounds nuw i8, ptr %5, i64 24
  %8 = getelementptr inbounds i8, ptr %5, i64 8
  store i64 0, ptr %8, align 8
  %9 = ptrtoint ptr %2 to i64
  store i64 %9, ptr %5, align 8
  store ptr @"_ZNSt17_Function_handlerIFN4llvm13ConstantRangeERKS1_S3_EZNS0_17LazyValueInfoImpl32solveBlockValueOverflowIntrinsicEPNS0_16WithOverflowInstEPNS0_10BasicBlockEE3$_0E9_M_invokeERKSt9_Any_dataS3_S3_", ptr %7, align 8
  store ptr @"_ZNSt17_Function_handlerIFN4llvm13ConstantRangeERKS1_S3_EZNS0_17LazyValueInfoImpl32solveBlockValueOverflowIntrinsicEPNS0_16WithOverflowInstEPNS0_10BasicBlockEE3$_0E10_M_managerERSt9_Any_dataRKSC_St18_Manager_operation", ptr %6, align 8
  call void @_ZN4llvm17LazyValueInfoImpl27solveBlockValueBinaryOpImplEPNS_11InstructionEPNS_10BasicBlockESt8functionIFNS_13ConstantRangeERKS6_S8_EE(ptr dead_on_unwind writable sret(%"class.std::optional") align 8 %0, ptr noundef nonnull align 8 dereferenceable(240) %1, ptr noundef %2, ptr noundef %3, ptr noundef nonnull %5)
  %10 = load ptr, ptr %6, align 8
  %.not.i.i = icmp eq ptr %10, null
  br i1 %.not.i.i, label %_ZNSt8functionIFN4llvm13ConstantRangeERKS1_S3_EED2Ev.exit, label %11

11:                                               ; preds = %4
  %12 = call noundef zeroext i1 %10(ptr noundef nonnull align 8 dereferenceable(16) %5, ptr noundef nonnull align 8 dereferenceable(16) %5, i32 noundef 3) #19
  br label %_ZNSt8functionIFN4llvm13ConstantRangeERKS1_S3_EED2Ev.exit

_ZNSt8functionIFN4llvm13ConstantRangeERKS1_S3_EED2Ev.exit: ; preds = %4, %11
  ret void
}